; Function Attrs: mustprogress uwtable
define noundef double @_ZNK3g2o15SparseOptimizer10activeChi2Ev(ptr nocapture noundef nonnull readonly align 8 dereferenceable(409) %0) local_unnamed_addr #3 align 2 {
  %2 = getelementptr inbounds nuw i8, ptr %0, i64 352
  %3 = load ptr, ptr %2, align 8
  %4 = getelementptr inbounds i8, ptr %0, i64 360
  %5 = load ptr, ptr %4, align 8
  %.not7 = icmp eq ptr %3, %5
  br i1 %.not7, label %._crit_edge, label %.lr.ph

.lr.ph:                                           ; preds = %1, %.lr.ph
  %.09 = phi double [ %11, %.lr.ph ], [ 0.000000e+00, %1 ]
  %.sroa.04.08 = phi ptr [ %12, %.lr.ph ], [ %3, %1 ]
  %6 = load ptr, ptr %.sroa.04.08, align 8
  %7 = load ptr, ptr %6, align 8
  %8 = getelementptr inbounds i8, ptr %7, i64 112
  %9 = load ptr, ptr %8, align 8
  %10 = tail call noundef double %9(ptr noundef nonnull align 8 dereferenceable(176) %6)
  %11 = fadd double %.09, %10
  %12 = getelementptr inbounds i8, ptr %.sroa.04.08, i64 8
  %13 = load ptr, ptr %4, align 8
  %.not = icmp eq ptr %12, %13
  br i1 %.not, label %._crit_edge, label %.lr.ph, !llvm.loop !8

._crit_edge:                                      ; preds = %.lr.ph, %1
  %.0.lcssa = phi double [ 0.000000e+00, %1 ], [ %11, %.lr.ph ]
  ret double %.0.lcssa
}